; Function Attrs: nounwind uwtable
define internal i32 @ignoreSectionProcessor(ptr noundef %0, ptr noundef %1, ptr noundef %2, ptr noundef writeonly captures(none) %3) #0 {
  %5 = alloca ptr, align 8
  %6 = alloca ptr, align 8
  store ptr %1, ptr %6, align 8, !tbaa !117
  %7 = getelementptr inbounds nuw i8, ptr %0, i64 304
  %8 = load ptr, ptr %7, align 8, !tbaa !206
  %9 = getelementptr inbounds nuw i8, ptr %0, i64 924
  %10 = load i8, ptr %9, align 4, !tbaa !202
  %.not = icmp eq i8 %10, 0
  %11 = zext i1 %.not to i8
  %12 = call fastcc i32 @doIgnoreSection(ptr noundef %0, ptr noundef %8, ptr noundef %6, ptr noundef %2, ptr noundef %3, i8 noundef zeroext %11)
  %.not13 = icmp eq i32 %12, 0
  br i1 %.not13, label %13, label %25

13:                                               ; preds = %4
  %14 = load ptr, ptr %6, align 8, !tbaa !117
  %.not14 = icmp eq ptr %14, null
  br i1 %.not14, label %25, label %15

15:                                               ; preds = %13
  %16 = getelementptr inbounds nuw i8, ptr %0, i64 544
  store ptr @prologProcessor, ptr %16, align 8, !tbaa !100
  call void @llvm.lifetime.start.p0(i64 8, ptr nonnull %5) #25
  store ptr %14, ptr %5, align 8, !tbaa !117
  %17 = load ptr, ptr %7, align 8, !tbaa !206
  %18 = load ptr, ptr %17, align 8, !tbaa !92
  %19 = call i32 %18(ptr noundef nonnull %17, ptr noundef nonnull %14, ptr noundef %2, ptr noundef nonnull %5) #25
  %20 = load ptr, ptr %7, align 8, !tbaa !206
  %21 = load ptr, ptr %5, align 8, !tbaa !117
  %22 = load i8, ptr %9, align 4, !tbaa !202
  %.not.i = icmp eq i8 %22, 0
  %23 = zext i1 %.not.i to i8
  %24 = call fastcc i32 @doProlog(ptr noundef nonnull %0, ptr noundef %20, ptr noundef nonnull %14, ptr noundef %2, i32 noundef %19, ptr noundef %21, ptr noundef %3, i8 noundef zeroext %23, i8 noundef zeroext 1, i32 noundef 0)
  call void @llvm.lifetime.end.p0(i64 8, ptr nonnull %5) #25
  br label %25

25:                                               ; preds = %13, %4, %15
  %.0 = phi i32 [ %24, %15 ], [ %12, %4 ], [ 0, %13 ]
  ret i32 %.0
}